; Function Attrs: mustprogress uwtable
define hidden noundef ptr @_ZN3smt11farkas_util5mk_leEP4exprS2_(ptr noundef nonnull readonly align 8 captures(none) dereferenceable(128) %0, ptr noundef %1, ptr noundef %2) local_unnamed_addr #3 align 2 {
  %4 = alloca ptr, align 8
  %5 = alloca ptr, align 8
  store ptr %1, ptr %4, align 8, !tbaa !32
  store ptr %2, ptr %5, align 8, !tbaa !32
  call void @_ZN3smt11farkas_util9mk_coerceERP4exprS3_(ptr noundef nonnull align 8 dereferenceable(128) %0, ptr noundef nonnull align 8 dereferenceable(8) %4, ptr noundef nonnull align 8 dereferenceable(8) %5)
  %6 = getelementptr inbounds nuw i8, ptr %0, i64 8
  %7 = load ptr, ptr %4, align 8, !tbaa !32
  %8 = load ptr, ptr %5, align 8, !tbaa !32
  %9 = load ptr, ptr %6, align 8, !tbaa !45
  %10 = tail call noundef ptr @_ZN11ast_manager6mk_appEiiP4exprS1_(ptr noundef nonnull align 8 dereferenceable(976) %9, i32 noundef 5, i32 noundef 2, ptr noundef %7, ptr noundef %8)
  ret ptr %10
}